target datalayout = "e-m:e-p270:32:32-p271:32:32-p272:64:64-i64:64-i128:128-f80:128-n8:16:32:64-S128"
target triple = "x86_64-pc-linux-gnu"

%struct.AVIOInterruptCB = type { ptr, ptr }
%struct.Muxer = type { %struct.OutputFile, [32 x i8], ptr, ptr, i32, ptr, i32, ptr, ptr, i64, i64, i32, ptr, ptr }
%struct.OutputFile = type { ptr, i32, ptr, ptr, i32, i64, i64, i32 }
%struct.AVFormatContext = type { ptr, ptr, ptr, ptr, ptr, i32, i32, ptr, i32, ptr, i32, ptr, ptr, i64, i64, i64, i32, i32, i32, i64, i64, ptr, i32, i32, ptr, i32, i32, i32, i32, ptr, i64, i32, i32, %struct.AVIOInterruptCB, i32, i32, i32, i32, i64, i32, i32, i32, i32, i32, i32, i32, i32, i32, i32, i32, i32, i64, i32, i32, i32, i32, i32, ptr, ptr, ptr, ptr, i32, ptr, ptr, ptr, ptr, i32, ptr, ptr, i64, ptr, ptr, ptr, i64 }
%struct.AVOutputFormat = type { ptr, ptr, ptr, ptr, i32, i32, i32, i32, ptr, ptr }

@nb_output_files = external global i32, align 4
@output_files = external global ptr, align 8
@.str.3 = private unnamed_addr constant [4 x i8] c"rtp\00", align 1
@.str.4 = private unnamed_addr constant [31 x i8] c"No output streams in the SDP.\0A\00", align 1
@.str.5 = private unnamed_addr constant [9 x i8] c"SDP:\0A%s\0A\00", align 1
@stdout = external global ptr, align 8
@int_cb = external constant %struct.AVIOInterruptCB, align 8
@.str.6 = private unnamed_addr constant [30 x i8] c"Failed to open sdp file '%s'\0A\00", align 1

; Function Attrs: nounwind uwtable
define internal ptr @mux_from_of(ptr noundef %0) #0 {
  %2 = alloca ptr, align 8
  store ptr %0, ptr %2, align 8, !tbaa !10
  %3 = load ptr, ptr %2, align 8, !tbaa !10
  ret ptr %3
}

; Function Attrs: nounwind uwtable
define i32 @print_sdp(ptr noundef %0) #0 {
  %2 = alloca i32, align 4
  %3 = alloca ptr, align 8
  %4 = alloca [16384 x i8], align 16
  %5 = alloca i32, align 4
  %6 = alloca i32, align 4
  %7 = alloca ptr, align 8
  %8 = alloca ptr, align 8
  %9 = alloca i32, align 4
  %10 = alloca i32, align 4
  %11 = alloca ptr, align 8
  %12 = alloca [2 x ptr], align 8
  store ptr %0, ptr %3, align 8, !tbaa !87
  call void @llvm.lifetime.start.p0(i64 16384, ptr %4) #10
  call void @llvm.lifetime.start.p0(i64 4, ptr %5) #10
  store i32 0, ptr %5, align 4, !tbaa !12
  call void @llvm.lifetime.start.p0(i64 4, ptr %6) #10
  call void @llvm.lifetime.start.p0(i64 8, ptr %7) #10
  call void @llvm.lifetime.start.p0(i64 8, ptr %8) #10
  %13 = load i32, ptr @nb_output_files, align 4, !tbaa !12
  %14 = sext i32 %13 to i64
  %15 = call ptr @av_malloc_array(i64 noundef %14, i64 noundef 8)
  store ptr %15, ptr %8, align 8, !tbaa !91
  %16 = load ptr, ptr %8, align 8, !tbaa !91
  %17 = icmp ne ptr %16, null
  br i1 %17, label %19, label %18

18:                                               ; preds = %1
  store i32 -12, ptr %2, align 4
  store i32 1, ptr %9, align 4
  br label %91

19:                                               ; preds = %1
  call void @llvm.lifetime.start.p0(i64 4, ptr %10) #10
  store i32 0, ptr %10, align 4, !tbaa !12
  br label %20

20:                                               ; preds = %52, %19
  %21 = load i32, ptr %10, align 4, !tbaa !12
  %22 = load i32, ptr @nb_output_files, align 4, !tbaa !12
  %23 = icmp slt i32 %21, %22
  br i1 %23, label %25, label %24

24:                                               ; preds = %20
  store i32 2, ptr %9, align 4
  call void @llvm.lifetime.end.p0(i64 4, ptr %10) #10
  br label %55

25:                                               ; preds = %20
  call void @llvm.lifetime.start.p0(i64 8, ptr %11) #10
  %26 = load ptr, ptr @output_files, align 8, !tbaa !93
  %27 = load i32, ptr %10, align 4, !tbaa !12
  %28 = sext i32 %27 to i64
  %29 = getelementptr inbounds ptr, ptr %26, i64 %28
  %30 = load ptr, ptr %29, align 8, !tbaa !10
  %31 = call ptr @mux_from_of(ptr noundef %30)
  store ptr %31, ptr %11, align 8, !tbaa !8
  %32 = load ptr, ptr %11, align 8, !tbaa !8
  %33 = getelementptr inbounds nuw %struct.Muxer, ptr %32, i32 0, i32 2
  %34 = load ptr, ptr %33, align 8, !tbaa !59
  %35 = getelementptr inbounds nuw %struct.AVFormatContext, ptr %34, i32 0, i32 2
  %36 = load ptr, ptr %35, align 8, !tbaa !60
  %37 = getelementptr inbounds nuw %struct.AVOutputFormat, ptr %36, i32 0, i32 0
  %38 = load ptr, ptr %37, align 8, !tbaa !70
  %39 = call i32 @strcmp(ptr noundef %38, ptr noundef @.str.3) #11
  %40 = icmp ne i32 %39, 0
  br i1 %40, label %51, label %41

41:                                               ; preds = %25
  %42 = load ptr, ptr %11, align 8, !tbaa !8
  %43 = getelementptr inbounds nuw %struct.Muxer, ptr %42, i32 0, i32 2
  %44 = load ptr, ptr %43, align 8, !tbaa !59
  %45 = load ptr, ptr %8, align 8, !tbaa !91
  %46 = load i32, ptr %5, align 4, !tbaa !12
  %47 = sext i32 %46 to i64
  %48 = getelementptr inbounds ptr, ptr %45, i64 %47
  store ptr %44, ptr %48, align 8, !tbaa !95
  %49 = load i32, ptr %5, align 4, !tbaa !12
  %50 = add nsw i32 %49, 1
  store i32 %50, ptr %5, align 4, !tbaa !12
  br label %51

51:                                               ; preds = %41, %25
  call void @llvm.lifetime.end.p0(i64 8, ptr %11) #10
  br label %52

52:                                               ; preds = %51
  %53 = load i32, ptr %10, align 4, !tbaa !12
  %54 = add nsw i32 %53, 1
  store i32 %54, ptr %10, align 4, !tbaa !12
  br label %20, !llvm.loop !96

55:                                               ; preds = %24
  %56 = load i32, ptr %5, align 4, !tbaa !12
  %57 = icmp ne i32 %56, 0
  br i1 %57, label %59, label %58

58:                                               ; preds = %55
  call void (ptr, i32, ptr, ...) @av_log(ptr noundef null, i32 noundef 16, ptr noundef @.str.4)
  store i32 -22, ptr %6, align 4, !tbaa !12
  br label %89

59:                                               ; preds = %55
  %60 = load ptr, ptr %8, align 8, !tbaa !91
  %61 = load i32, ptr %5, align 4, !tbaa !12
  %62 = getelementptr inbounds [16384 x i8], ptr %4, i64 0, i64 0
  %63 = call i32 @av_sdp_create(ptr noundef %60, i32 noundef %61, ptr noundef %62, i32 noundef 16384)
  store i32 %63, ptr %6, align 4, !tbaa !12
  %64 = load i32, ptr %6, align 4, !tbaa !12
  %65 = icmp slt i32 %64, 0
  br i1 %65, label %66, label %67

66:                                               ; preds = %59
  br label %89

67:                                               ; preds = %59
  %68 = load ptr, ptr %3, align 8, !tbaa !87
  %69 = icmp ne ptr %68, null
  br i1 %69, label %75, label %70

70:                                               ; preds = %67
  %71 = getelementptr inbounds [16384 x i8], ptr %4, i64 0, i64 0
  %72 = call i32 (ptr, ...) @printf(ptr noundef @.str.5, ptr noundef %71)
  %73 = load ptr, ptr @stdout, align 8, !tbaa !97
  %74 = call i32 @fflush(ptr noundef %73)
  br label %88

75:                                               ; preds = %67
  %76 = load ptr, ptr %3, align 8, !tbaa !87
  %77 = call i32 @avio_open2(ptr noundef %7, ptr noundef %76, i32 noundef 2, ptr noundef @int_cb, ptr noundef null)
  store i32 %77, ptr %6, align 4, !tbaa !12
  %78 = load i32, ptr %6, align 4, !tbaa !12
  %79 = icmp slt i32 %78, 0
  br i1 %79, label %80, label %82

80:                                               ; preds = %75
  %81 = load ptr, ptr %3, align 8, !tbaa !87
  call void (ptr, i32, ptr, ...) @av_log(ptr noundef null, i32 noundef 16, ptr noundef @.str.6, ptr noundef %81)
  br label %89

82:                                               ; preds = %75
  %83 = load ptr, ptr %7, align 8, !tbaa !98
  %84 = getelementptr inbounds [16384 x i8], ptr %4, i64 0, i64 0
  store ptr %84, ptr %12, align 8, !tbaa !87
  %85 = getelementptr inbounds ptr, ptr %12, i64 1
  store ptr null, ptr %85, align 8, !tbaa !87
  %86 = getelementptr inbounds [2 x ptr], ptr %12, i64 0, i64 0
  call void @avio_print_string_array(ptr noundef %83, ptr noundef %86)
  %87 = call i32 @avio_closep(ptr noundef %7)
  br label %88

88:                                               ; preds = %82, %70
  br label %89

89:                                               ; preds = %88, %80, %66, %58
  call void @av_freep(ptr noundef %8)
  %90 = load i32, ptr %6, align 4, !tbaa !12
  store i32 %90, ptr %2, align 4
  store i32 1, ptr %9, align 4
  br label %91

91:                                               ; preds = %89, %18
  call void @llvm.lifetime.end.p0(i64 8, ptr %8) #10
  call void @llvm.lifetime.end.p0(i64 8, ptr %7) #10
  call void @llvm.lifetime.end.p0(i64 4, ptr %6) #10
  call void @llvm.lifetime.end.p0(i64 4, ptr %5) #10
  call void @llvm.lifetime.end.p0(i64 16384, ptr %4) #10
  %92 = load i32, ptr %2, align 4
  ret i32 %92
}