; Function Attrs: nounwind uwtable
define i32 @print_sdp(ptr noundef %0) local_unnamed_addr #0 {
  %2 = alloca [16384 x i8], align 16
  %3 = alloca ptr, align 8
  %4 = alloca ptr, align 8
  %5 = alloca [2 x ptr], align 8
  call void @llvm.lifetime.start.p0(i64 16384, ptr nonnull %2) #11
  call void @llvm.lifetime.start.p0(i64 8, ptr nonnull %3) #11
  call void @llvm.lifetime.start.p0(i64 8, ptr nonnull %4) #11
  %6 = load i32, ptr @nb_output_files, align 4, !tbaa !49
  %7 = sext i32 %6 to i64
  %8 = tail call ptr @av_malloc_array(i64 noundef %7, i64 noundef 8) #11
  store ptr %8, ptr %4, align 8, !tbaa !102
  %.not = icmp eq ptr %8, null
  br i1 %.not, label %43, label %.preheader

.preheader:                                       ; preds = %1
  %9 = load i32, ptr @nb_output_files, align 4, !tbaa !49
  %10 = icmp sgt i32 %9, 0
  br i1 %10, label %.lr.ph, label %._crit_edge.thread

.lr.ph:                                           ; preds = %.preheader
  %11 = load ptr, ptr @output_files, align 8, !tbaa !104
  %wide.trip.count = zext nneg i32 %9 to i64
  br label %12

._crit_edge:                                      ; preds = %25
  %.not23 = icmp eq i32 %.1, 0
  br i1 %.not23, label %._crit_edge.thread, label %26

12:                                               ; preds = %.lr.ph, %25
  %indvars.iv = phi i64 [ 0, %.lr.ph ], [ %indvars.iv.next, %25 ]
  %.01726 = phi i32 [ 0, %.lr.ph ], [ %.1, %25 ]
  %13 = getelementptr inbounds nuw ptr, ptr %11, i64 %indvars.iv
  %14 = load ptr, ptr %13, align 8, !tbaa !106
  %15 = getelementptr inbounds nuw i8, ptr %14, i64 96
  %16 = load ptr, ptr %15, align 8, !tbaa !25
  %17 = getelementptr inbounds nuw i8, ptr %16, i64 16
  %18 = load ptr, ptr %17, align 8, !tbaa !26
  %19 = load ptr, ptr %18, align 8, !tbaa !37
  %20 = tail call i32 @strcmp(ptr noundef nonnull dereferenceable(1) %19, ptr noundef nonnull dereferenceable(4) @.str.3) #13
  %.not25 = icmp eq i32 %20, 0
  br i1 %.not25, label %21, label %25

21:                                               ; preds = %12
  %22 = sext i32 %.01726 to i64
  %23 = getelementptr inbounds ptr, ptr %8, i64 %22
  store ptr %16, ptr %23, align 8, !tbaa !107
  %24 = add nsw i32 %.01726, 1
  br label %25

25:                                               ; preds = %21, %12
  %.1 = phi i32 [ %.01726, %12 ], [ %24, %21 ]
  %indvars.iv.next = add nuw nsw i64 %indvars.iv, 1
  %exitcond.not = icmp eq i64 %indvars.iv.next, %wide.trip.count
  br i1 %exitcond.not, label %._crit_edge, label %12, !llvm.loop !108

._crit_edge.thread:                               ; preds = %.preheader, %._crit_edge
  tail call void (ptr, i32, ptr, ...) @av_log(ptr noundef null, i32 noundef 16, ptr noundef nonnull @.str.4) #11
  br label %42

26:                                               ; preds = %._crit_edge
  %27 = call i32 @av_sdp_create(ptr noundef nonnull %8, i32 noundef %.1, ptr noundef nonnull %2, i32 noundef 16384) #11
  %28 = icmp slt i32 %27, 0
  br i1 %28, label %42, label %29

29:                                               ; preds = %26
  %.not24 = icmp eq ptr %0, null
  br i1 %.not24, label %30, label %34

30:                                               ; preds = %29
  %31 = call i32 (ptr, ...) @printf(ptr noundef nonnull dereferenceable(1) @.str.5, ptr noundef nonnull %2)
  %32 = load ptr, ptr @stdout, align 8, !tbaa !109
  %33 = call i32 @fflush(ptr noundef %32)
  br label %42

34:                                               ; preds = %29
  %35 = call i32 @avio_open2(ptr noundef nonnull %3, ptr noundef nonnull %0, i32 noundef 2, ptr noundef nonnull @int_cb, ptr noundef null) #11
  %36 = icmp slt i32 %35, 0
  br i1 %36, label %37, label %38

37:                                               ; preds = %34
  call void (ptr, i32, ptr, ...) @av_log(ptr noundef null, i32 noundef 16, ptr noundef nonnull @.str.6, ptr noundef nonnull %0) #11
  br label %42

38:                                               ; preds = %34
  %39 = load ptr, ptr %3, align 8, !tbaa !110
  store ptr %2, ptr %5, align 8, !tbaa !111
  %40 = getelementptr inbounds nuw i8, ptr %5, i64 8
  store ptr null, ptr %40, align 8, !tbaa !111
  call void @avio_print_string_array(ptr noundef %39, ptr noundef nonnull %5) #11
  %41 = call i32 @avio_closep(ptr noundef nonnull %3) #11
  br label %42

42:                                               ; preds = %30, %38, %26, %37, %._crit_edge.thread
  %.016 = phi i32 [ %27, %26 ], [ %35, %37 ], [ %35, %38 ], [ %27, %30 ], [ -22, %._crit_edge.thread ]
  call void @av_freep(ptr noundef nonnull %4) #11
  br label %43

43:                                               ; preds = %1, %42
  %.0 = phi i32 [ %.016, %42 ], [ -12, %1 ]
  call void @llvm.lifetime.end.p0(i64 8, ptr nonnull %4) #11
  call void @llvm.lifetime.end.p0(i64 8, ptr nonnull %3) #11
  call void @llvm.lifetime.end.p0(i64 16384, ptr nonnull %2) #11
  ret i32 %.0
}